target datalayout = "e-m:e-p270:32:32-p271:32:32-p272:64:64-i64:64-i128:128-f80:128-n8:16:32:64-S128"
target triple = "x86_64-pc-linux-gnu"

; Function Attrs: nounwind uwtable
define i32 @Cba_BlastReduction(ptr noundef %0, ptr noundef %1, i32 noundef %2, i32 noundef %3) #0 {
  %5 = alloca i32, align 4
  %6 = alloca ptr, align 8
  %7 = alloca ptr, align 8
  %8 = alloca i32, align 4
  %9 = alloca i32, align 4
  %10 = alloca i32, align 4
  %11 = alloca i32, align 4
  %12 = alloca i32, align 4
  %13 = alloca i32, align 4
  %14 = alloca i32, align 4
  %15 = alloca i32, align 4
  store ptr %0, ptr %6, align 8
  store ptr %1, ptr %7, align 8
  store i32 %2, ptr %8, align 4
  store i32 %3, ptr %9, align 4
  %16 = load i32, ptr %9, align 4
  %17 = icmp eq i32 %16, 27
  br i1 %17, label %18, label %37

18:                                               ; preds = %4
  store i32 1, ptr %11, align 4
  store i32 0, ptr %10, align 4
  br label %19

19:                                               ; preds = %32, %18
  %20 = load i32, ptr %10, align 4
  %21 = load i32, ptr %8, align 4
  %22 = icmp slt i32 %20, %21
  br i1 %22, label %23, label %35

23:                                               ; preds = %19
  %24 = load ptr, ptr %6, align 8
  %25 = load i32, ptr %11, align 4
  %26 = load ptr, ptr %7, align 8
  %27 = load i32, ptr %10, align 4
  %28 = sext i32 %27 to i64
  %29 = getelementptr inbounds i32, ptr %26, i64 %28
  %30 = load i32, ptr %29, align 4
  %31 = call i32 @Gia_ManHashAnd(ptr noundef %24, i32 noundef %25, i32 noundef %30)
  store i32 %31, ptr %11, align 4
  br label %32

32:                                               ; preds = %23
  %33 = load i32, ptr %10, align 4
  %34 = add nsw i32 %33, 1
  store i32 %34, ptr %10, align 4
  br label %19, !llvm.loop !23

35:                                               ; preds = %19
  %36 = load i32, ptr %11, align 4
  store i32 %36, ptr %5, align 4
  br label %82

37:                                               ; preds = %4
  %38 = load i32, ptr %9, align 4
  %39 = icmp eq i32 %38, 29
  br i1 %39, label %40, label %59

40:                                               ; preds = %37
  store i32 0, ptr %13, align 4
  store i32 0, ptr %12, align 4
  br label %41

41:                                               ; preds = %54, %40
  %42 = load i32, ptr %12, align 4
  %43 = load i32, ptr %8, align 4
  %44 = icmp slt i32 %42, %43
  br i1 %44, label %45, label %57

45:                                               ; preds = %41
  %46 = load ptr, ptr %6, align 8
  %47 = load i32, ptr %13, align 4
  %48 = load ptr, ptr %7, align 8
  %49 = load i32, ptr %12, align 4
  %50 = sext i32 %49 to i64
  %51 = getelementptr inbounds i32, ptr %48, i64 %50
  %52 = load i32, ptr %51, align 4
  %53 = call i32 @Gia_ManHashOr(ptr noundef %46, i32 noundef %47, i32 noundef %52)
  store i32 %53, ptr %13, align 4
  br label %54

54:                                               ; preds = %45
  %55 = load i32, ptr %12, align 4
  %56 = add nsw i32 %55, 1
  store i32 %56, ptr %12, align 4
  br label %41, !llvm.loop !24

57:                                               ; preds = %41
  %58 = load i32, ptr %13, align 4
  store i32 %58, ptr %5, align 4
  br label %82

59:                                               ; preds = %37
  %60 = load i32, ptr %9, align 4
  %61 = icmp eq i32 %60, 31
  br i1 %61, label %62, label %81

62:                                               ; preds = %59
  store i32 0, ptr %15, align 4
  store i32 0, ptr %14, align 4
  br label %63

63:                                               ; preds = %76, %62
  %64 = load i32, ptr %14, align 4
  %65 = load i32, ptr %8, align 4
  %66 = icmp slt i32 %64, %65
  br i1 %66, label %67, label %79

67:                                               ; preds = %63
  %68 = load ptr, ptr %6, align 8
  %69 = load i32, ptr %15, align 4
  %70 = load ptr, ptr %7, align 8
  %71 = load i32, ptr %14, align 4
  %72 = sext i32 %71 to i64
  %73 = getelementptr inbounds i32, ptr %70, i64 %72
  %74 = load i32, ptr %73, align 4
  %75 = call i32 @Gia_ManHashXor(ptr noundef %68, i32 noundef %69, i32 noundef %74)
  store i32 %75, ptr %15, align 4
  br label %76

76:                                               ; preds = %67
  %77 = load i32, ptr %14, align 4
  %78 = add nsw i32 %77, 1
  store i32 %78, ptr %14, align 4
  br label %63, !llvm.loop !25

79:                                               ; preds = %63
  %80 = load i32, ptr %15, align 4
  store i32 %80, ptr %5, align 4
  br label %82

81:                                               ; preds = %59
  store i32 -1, ptr %5, align 4
  br label %82

82:                                               ; preds = %81, %79, %57, %35
  %83 = load i32, ptr %5, align 4
  ret i32 %83
}