; Function Attrs: nounwind uwtable
define i32 @Cba_BlastReduction(ptr noundef %0, ptr noundef readonly captures(none) %1, i32 noundef %2, i32 noundef %3) local_unnamed_addr #0 {
  switch i32 %3, label %.loopexit [
    i32 27, label %.preheader
    i32 29, label %.preheader34
    i32 31, label %.preheader36
  ]

.preheader36:                                     ; preds = %4
  %5 = icmp sgt i32 %2, 0
  br i1 %5, label %.lr.ph.preheader, label %.loopexit

.lr.ph.preheader:                                 ; preds = %.preheader36
  %wide.trip.count = zext nneg i32 %2 to i64
  br label %.lr.ph

.preheader34:                                     ; preds = %4
  %6 = icmp sgt i32 %2, 0
  br i1 %6, label %.lr.ph42.preheader, label %.loopexit

.lr.ph42.preheader:                               ; preds = %.preheader34
  %wide.trip.count56 = zext nneg i32 %2 to i64
  br label %.lr.ph42

.preheader:                                       ; preds = %4
  %7 = icmp sgt i32 %2, 0
  br i1 %7, label %.lr.ph46.preheader, label %.loopexit

.lr.ph46.preheader:                               ; preds = %.preheader
  %wide.trip.count61 = zext nneg i32 %2 to i64
  br label %.lr.ph46

.lr.ph46:                                         ; preds = %.lr.ph46.preheader, %.lr.ph46
  %indvars.iv58 = phi i64 [ 0, %.lr.ph46.preheader ], [ %indvars.iv.next59, %.lr.ph46 ]
  %.03045 = phi i32 [ 1, %.lr.ph46.preheader ], [ %10, %.lr.ph46 ]
  %8 = getelementptr inbounds nuw i32, ptr %1, i64 %indvars.iv58
  %9 = load i32, ptr %8, align 4
  %10 = tail call i32 @Gia_ManHashAnd(ptr noundef %0, i32 noundef %.03045, i32 noundef %9) #20
  %indvars.iv.next59 = add nuw nsw i64 %indvars.iv58, 1
  %exitcond62.not = icmp eq i64 %indvars.iv.next59, %wide.trip.count61
  br i1 %exitcond62.not, label %.loopexit, label %.lr.ph46, !llvm.loop !23

.lr.ph42:                                         ; preds = %.lr.ph42.preheader, %.lr.ph42
  %indvars.iv53 = phi i64 [ 0, %.lr.ph42.preheader ], [ %indvars.iv.next54, %.lr.ph42 ]
  %.02841 = phi i32 [ 0, %.lr.ph42.preheader ], [ %13, %.lr.ph42 ]
  %11 = getelementptr inbounds nuw i32, ptr %1, i64 %indvars.iv53
  %12 = load i32, ptr %11, align 4
  %13 = tail call i32 @Gia_ManHashOr(ptr noundef %0, i32 noundef %.02841, i32 noundef %12) #20
  %indvars.iv.next54 = add nuw nsw i64 %indvars.iv53, 1
  %exitcond57.not = icmp eq i64 %indvars.iv.next54, %wide.trip.count56
  br i1 %exitcond57.not, label %.loopexit, label %.lr.ph42, !llvm.loop !24

.lr.ph:                                           ; preds = %.lr.ph.preheader, %.lr.ph
  %indvars.iv = phi i64 [ 0, %.lr.ph.preheader ], [ %indvars.iv.next, %.lr.ph ]
  %.039 = phi i32 [ 0, %.lr.ph.preheader ], [ %16, %.lr.ph ]
  %14 = getelementptr inbounds nuw i32, ptr %1, i64 %indvars.iv
  %15 = load i32, ptr %14, align 4
  %16 = tail call i32 @Gia_ManHashXor(ptr noundef %0, i32 noundef %.039, i32 noundef %15) #20
  %indvars.iv.next = add nuw nsw i64 %indvars.iv, 1
  %exitcond.not = icmp eq i64 %indvars.iv.next, %wide.trip.count
  br i1 %exitcond.not, label %.loopexit, label %.lr.ph, !llvm.loop !25

.loopexit:                                        ; preds = %.lr.ph, %.lr.ph42, %.lr.ph46, %.preheader36, %.preheader34, %.preheader, %4
  %.032 = phi i32 [ -1, %4 ], [ 1, %.preheader ], [ 0, %.preheader34 ], [ 0, %.preheader36 ], [ %10, %.lr.ph46 ], [ %13, %.lr.ph42 ], [ %16, %.lr.ph ]
  ret i32 %.032
}